; Function Attrs: mustprogress null_pointer_is_valid sspstrong uwtable
define void @_ZN19WiresharkMainWindow31deleteAllPacketCommentsFinishedEi(ptr noundef align 8 dereferenceable_or_null(560) %0, i32 noundef %1) #0 align 2 {
  %3 = icmp eq i32 %1, 1024
  br i1 %3, label %4, label %7

4:                                                ; preds = %2
  %5 = getelementptr inbounds nuw i8, ptr %0, i64 272
  %6 = load ptr, ptr %5, align 8
  tail call void @_ZN10PacketList23deleteAllPacketCommentsEv(ptr noundef align 8 dereferenceable_or_null(432) %6)
  tail call void @_ZN10MainWindow23updateForUnsavedChangesEv(ptr noundef align 8 dereferenceable_or_null(360) %0)
  br label %7

7:                                                ; preds = %4, %2
  ret void
}